target datalayout = "e-m:e-p270:32:32-p271:32:32-p272:64:64-i64:64-i128:128-f80:128-n8:16:32:64-S128"
target triple = "x86_64-pc-linux-gnu"

%struct.ARKodeARKStepMemRec = type { ptr, ptr, i32, i32, i32, i32, i32, i32, ptr, ptr, ptr, ptr, ptr, ptr, i32, i32, i32, i32, ptr, ptr, ptr, ptr, i32, ptr, double, double, double, double, i32, double, double, double, double, double, double, i32, i64, i32, i32, i32, ptr, ptr, ptr, ptr, ptr, ptr, i32, ptr, ptr, ptr, ptr, ptr, ptr, i32, i32, i64, i64, i64, i64, i64, ptr, ptr, i32, i32, i32, double, double, ptr, i32, ptr, ptr }

@.str = private unnamed_addr constant [126 x i8] c"generated/home/dtcxzyw/WorkSpace/Projects/compilers/llvm-opt-benchmark/bench/sundials/sundials/src/arkode/arkode_arkstep_io.c\00", align 1
@__func__.arkStep_GetNumRhsEvals = private unnamed_addr constant [23 x i8] c"arkStep_GetNumRhsEvals\00", align 1
@.str.16 = private unnamed_addr constant [18 x i8] c"rhs_evals is NULL\00", align 1
@.str.17 = private unnamed_addr constant [24 x i8] c"Invalid partition index\00", align 1

; Function Attrs: nounwind uwtable
define i32 @arkStep_GetNumRhsEvals(ptr noundef %0, i32 noundef %1, ptr noundef %2) #0 {
  %4 = alloca i32, align 4
  %5 = alloca ptr, align 8
  %6 = alloca i32, align 4
  %7 = alloca ptr, align 8
  %8 = alloca ptr, align 8
  %9 = alloca i32, align 4
  %10 = alloca i32, align 4
  store ptr %0, ptr %5, align 8, !tbaa !20
  store i32 %1, ptr %6, align 4, !tbaa !7
  store ptr %2, ptr %7, align 8, !tbaa !52
  call void @llvm.lifetime.start.p0(i64 8, ptr %8) #4
  store ptr null, ptr %8, align 8, !tbaa !9
  call void @llvm.lifetime.start.p0(i64 4, ptr %9) #4
  %11 = load ptr, ptr %5, align 8, !tbaa !20
  %12 = call i32 @arkStep_AccessStepMem(ptr noundef %11, ptr noundef @__func__.arkStep_GetNumRhsEvals, ptr noundef %8)
  store i32 %12, ptr %9, align 4, !tbaa !7
  %13 = load i32, ptr %9, align 4, !tbaa !7
  %14 = icmp ne i32 %13, 0
  br i1 %14, label %15, label %17

15:                                               ; preds = %3
  %16 = load i32, ptr %9, align 4, !tbaa !7
  store i32 %16, ptr %4, align 4
  store i32 1, ptr %10, align 4
  br label %49

17:                                               ; preds = %3
  %18 = load ptr, ptr %7, align 8, !tbaa !52
  %19 = icmp eq ptr %18, null
  br i1 %19, label %20, label %22

20:                                               ; preds = %17
  %21 = load ptr, ptr %5, align 8, !tbaa !20
  call void (ptr, i32, i32, ptr, ptr, ptr, ...) @arkProcessError(ptr noundef %21, i32 noundef -22, i32 noundef 537, ptr noundef @__func__.arkStep_GetNumRhsEvals, ptr noundef @.str, ptr noundef @.str.16)
  store i32 -22, ptr %4, align 4
  store i32 1, ptr %10, align 4
  br label %49

22:                                               ; preds = %17
  %23 = load i32, ptr %6, align 4, !tbaa !7
  %24 = icmp sgt i32 %23, 1
  br i1 %24, label %25, label %27

25:                                               ; preds = %22
  %26 = load ptr, ptr %5, align 8, !tbaa !20
  call void (ptr, i32, i32, ptr, ptr, ptr, ...) @arkProcessError(ptr noundef %26, i32 noundef -22, i32 noundef 544, ptr noundef @__func__.arkStep_GetNumRhsEvals, ptr noundef @.str, ptr noundef @.str.17)
  store i32 -22, ptr %4, align 4
  store i32 1, ptr %10, align 4
  br label %49

27:                                               ; preds = %22
  %28 = load i32, ptr %6, align 4, !tbaa !7
  switch i32 %28, label %39 [
    i32 0, label %29
    i32 1, label %34
  ]

29:                                               ; preds = %27
  %30 = load ptr, ptr %8, align 8, !tbaa !9
  %31 = getelementptr inbounds nuw %struct.ARKodeARKStepMemRec, ptr %30, i32 0, i32 55
  %32 = load i64, ptr %31, align 8, !tbaa !54
  %33 = load ptr, ptr %7, align 8, !tbaa !52
  store i64 %32, ptr %33, align 8, !tbaa !44
  br label %48

34:                                               ; preds = %27
  %35 = load ptr, ptr %8, align 8, !tbaa !9
  %36 = getelementptr inbounds nuw %struct.ARKodeARKStepMemRec, ptr %35, i32 0, i32 56
  %37 = load i64, ptr %36, align 8, !tbaa !55
  %38 = load ptr, ptr %7, align 8, !tbaa !52
  store i64 %37, ptr %38, align 8, !tbaa !44
  br label %48

39:                                               ; preds = %27
  %40 = load ptr, ptr %8, align 8, !tbaa !9
  %41 = getelementptr inbounds nuw %struct.ARKodeARKStepMemRec, ptr %40, i32 0, i32 55
  %42 = load i64, ptr %41, align 8, !tbaa !54
  %43 = load ptr, ptr %8, align 8, !tbaa !9
  %44 = getelementptr inbounds nuw %struct.ARKodeARKStepMemRec, ptr %43, i32 0, i32 56
  %45 = load i64, ptr %44, align 8, !tbaa !55
  %46 = add nsw i64 %42, %45
  %47 = load ptr, ptr %7, align 8, !tbaa !52
  store i64 %46, ptr %47, align 8, !tbaa !44
  br label %48

48:                                               ; preds = %39, %34, %29
  store i32 0, ptr %4, align 4
  store i32 1, ptr %10, align 4
  br label %49

49:                                               ; preds = %48, %25, %20, %15
  call void @llvm.lifetime.end.p0(i64 4, ptr %9) #4
  call void @llvm.lifetime.end.p0(i64 8, ptr %8) #4
  %50 = load i32, ptr %4, align 4
  ret i32 %50
}