; Function Attrs: nounwind uwtable
define i32 @arkStep_GetNumRhsEvals(ptr noundef %0, i32 noundef %1, ptr noundef writeonly captures(address_is_null) %2) local_unnamed_addr #0 {
  %4 = alloca ptr, align 8
  call void @llvm.lifetime.start.p0(i64 8, ptr nonnull %4) #5
  store ptr null, ptr %4, align 8, !tbaa !3
  %5 = call i32 @arkStep_AccessStepMem(ptr noundef %0, ptr noundef nonnull @__func__.arkStep_GetNumRhsEvals, ptr noundef nonnull %4) #5
  %.not = icmp eq i32 %5, 0
  br i1 %.not, label %6, label %26

6:                                                ; preds = %3
  %7 = icmp eq ptr %2, null
  br i1 %7, label %8, label %9

8:                                                ; preds = %6
  call void (ptr, i32, i32, ptr, ptr, ptr, ...) @arkProcessError(ptr noundef %0, i32 noundef -22, i32 noundef 537, ptr noundef nonnull @__func__.arkStep_GetNumRhsEvals, ptr noundef nonnull @.str, ptr noundef nonnull @.str.16) #5
  br label %26

9:                                                ; preds = %6
  %10 = icmp sgt i32 %1, 1
  br i1 %10, label %11, label %12

11:                                               ; preds = %9
  call void (ptr, i32, i32, ptr, ptr, ptr, ...) @arkProcessError(ptr noundef %0, i32 noundef -22, i32 noundef 544, ptr noundef nonnull @__func__.arkStep_GetNumRhsEvals, ptr noundef nonnull @.str, ptr noundef nonnull @.str.17) #5
  br label %26

12:                                               ; preds = %9
  %13 = load ptr, ptr %4, align 8, !tbaa !3
  switch i32 %1, label %20 [
    i32 0, label %14
    i32 1, label %17
  ]

14:                                               ; preds = %12
  %15 = getelementptr inbounds nuw i8, ptr %13, i64 384
  %16 = load i64, ptr %15, align 8, !tbaa !47
  store i64 %16, ptr %2, align 8, !tbaa !41
  br label %26

17:                                               ; preds = %12
  %18 = getelementptr inbounds nuw i8, ptr %13, i64 392
  %19 = load i64, ptr %18, align 8, !tbaa !48
  store i64 %19, ptr %2, align 8, !tbaa !41
  br label %26

20:                                               ; preds = %12
  %21 = getelementptr inbounds nuw i8, ptr %13, i64 384
  %22 = load i64, ptr %21, align 8, !tbaa !47
  %23 = getelementptr inbounds nuw i8, ptr %13, i64 392
  %24 = load i64, ptr %23, align 8, !tbaa !48
  %25 = add nsw i64 %24, %22
  store i64 %25, ptr %2, align 8, !tbaa !41
  br label %26

26:                                               ; preds = %14, %17, %20, %3, %11, %8
  %.0 = phi i32 [ -22, %8 ], [ -22, %11 ], [ %5, %3 ], [ 0, %20 ], [ 0, %17 ], [ 0, %14 ]
  call void @llvm.lifetime.end.p0(i64 8, ptr nonnull %4) #5
  ret i32 %.0
}